(dp1
S'4:47474808-47474787'
p2
(lp3
(lp4
S'4:47475570-47475593'
p5
aS'4:47475630-47475653'
p6
aaS'Sec61b'
p7
aS'AGAAAGGAAGACCAAGATAGGGG'
p8
aS'https://www.mousephenotype.org/imits/mi_attempts/15195'
p9
aS'UCD'
p10
asS'11:115502844-115502868'
p11
(lp12
(lp13
S'11:115502838-115502861'
p14
aS'11:115503309-115503332'
p15
aaS'Jpt1'
p16
aS'GGCGATCCTTGTTAAAGTCAGGG'
p17
aS'https://www.mousephenotype.org/imits/mi_attempts/15374'
p18
aS'JAX'
p19
asS'2:77933191-77933170'
p20
(lp21
(lp22
S'2:77932149-77932172'
p23
aaS'Cwc22'
p24
aS'TAGGAGTGCAGAACTATAGATGG'
p25
aS'https://www.mousephenotype.org/imits/mi_attempts/15203'
p26
aS'UCD'
p27
asS'11:80911155-80911178'
p28
(lp29
(lp30
aS'Olfr376'
p31
aS'GCTCAGAAGAATCTCTGATTAGG'
p32
aS'https://www.mousephenotype.org/imits/mi_attempts/15190'
p33
aS'UCD'
p34
asS'10:118869734-118869715'
p35
(lp36
(lp37
S'10:118868087-118868110'
p38
aaS'Dyrk2'
p39
aS'GGTGACCCAAGCATGGACGAAGG'
p40
aS'https://www.mousephenotype.org/imits/mi_attempts/15431'
p41
aS'ICS'
p42
asS'X:102187792-102187770'
p43
(lp44
(lp45
S'X:102187738-102187761'
p46
aaS'Rps4x'
p47
aS'AGGCCCTTAACTCCCAATAGTGG'
p48
aS'https://www.mousephenotype.org/imits/mi_attempts/15194'
p49
aS'UCD'
p50
asS'2:77932276-77932302'
p51
(lp52
g22
aS'Cwc22'
p53
aS'AAATGATACGGCTATAGTACTGG'
p54
aS'https://www.mousephenotype.org/imits/mi_attempts/15203'
p55
aS'UCD'
p56
asS'11:81342202-81342226'
p57
(lp58
(lp59
S'11:73813712-73813735'
p60
aaS'Olfr392'
p61
aS'TGGGAGGGAAAACACATGGGAGG'
p62
aS'https://www.mousephenotype.org/imits/mi_attempts/15192'
p63
aS'UCD'
p64
asS'7:131228347-131228322'
p65
(lp66
(lp67
S'7:131229132-131229155'
p68
aS'7:131229189-131229212'
p69
aaS'5430419D17Rik'
p70
aS'GGGCAATAGACCTGTCCCATAGG'
p71
aS'https://www.mousephenotype.org/imits/mi_attempts/15182'
p72
aS'UCD'
p73
asS'8:123128972-123128951'
p74
(lp75
(lp76
S'8:123128813-123128836'
p77
aS'8:123123890-123123913'
p78
aaS'Cpne7'
p79
aS'CTGGGTCTACTGTCATGGACAGG'
p80
aS'https://www.mousephenotype.org/imits/mi_attempts/15201'
p81
aS'UCD'
p82
asS'18:61245730-61245755'
p83
(lp84
(lp85
S'18:61245890-61245913'
p86
aS'18:61244855-61244878'
p87
aaS'Pde6a'
p88
aS'GAGCCGTGAGACTTGCAAGGTGG'
p89
aS'https://www.mousephenotype.org/imits/mi_attempts/15184'
p90
aS'UCD'
p91
asS'5:105609012-105609034'
p92
(lp93
(lp94
S'5:105606367-105606390'
p95
aaS'Lrrc8c'
p96
aS'GGTGGAACTACCCATTCCTGCGG'
p97
aS'https://www.mousephenotype.org/imits/mi_attempts/15185'
p98
aS'UCD'
p99
asS'1:139237069-139237093'
p100
(lp101
(lp102
S'1:139237110-139237133'
p103
aaS'Crb1'
p104
aS'CCGAGAGACAGGCACACCATAAG'
p105
aS'https://www.mousephenotype.org/imits/mi_attempts/15921'
p106
aS'Harwell'
p107
asS'13:55786798-55786777'
p108
(lp109
(lp110
S'13:55786677-55786700'
p111
aaS'Catsper3'
p112
aS'GGAACTGACCCTAACTCCATTGG'
p113
aS'https://www.mousephenotype.org/imits/mi_attempts/15202'
p114
aS'UCD'
p115
asS'2:86924751-86924730'
p116
(lp117
(lp118
S'2:86924959-86924982'
p119
aS'2:86922188-86922211'
p120
aS'2:86922440-86922463'
p121
aaS'Olfr1098'
p122
aS'ATGTTCAAATATATTGAATTTGG'
p123
aS'https://www.mousephenotype.org/imits/mi_attempts/15183'
p124
aS'UCD'
p125
asS'6:51579645-51579624'
p126
(lp127
(lp128
S'6:51580006-51580029'
p129
aS'6:51579561-51579584'
p130
aaS'Snx10'
p131
aS'TGAGCAGTGTTAGCCCTGGGTGG'
p132
aS'https://www.mousephenotype.org/imits/mi_attempts/15197'
p133
aS'UCD'
p134
asS'X:102188142-102188120'
p135
(lp136
g45
aS'Rps4x'
p137
aS'GATGGTGGATACATAGACTCAGG'
p138
aS'https://www.mousephenotype.org/imits/mi_attempts/15194'
p139
aS'UCD'
p140
asS'11:80912997-80913022'
p141
(lp142
g30
aS'Olfr376'
p143
aS'TGTATGACACAGATTGTCTGAGG'
p144
aS'https://www.mousephenotype.org/imits/mi_attempts/15190'
p145
aS'UCD'
p146
asS'13:125941820-125941843'
p147
(lp148
(lp149
aS'Nnt'
p150
aS'CTTGTCAAAAACAGCAGTCTGGG'
p151
aS'https://www.mousephenotype.org/imits/mi_attempts/18839'
p152
aS'Harwell'
p153
asS'2:77933252-77933231'
p154
(lp155
g22
aS'Cwc22'
p156
aS'TCTGCCACTGTTCTGCCTATGGG'
p157
aS'https://www.mousephenotype.org/imits/mi_attempts/15203'
p158
aS'UCD'
p159
asS'13:55786249-55786228'
p160
(lp161
g110
aS'Catsper3'
p162
aS'GGAAAGGAAATATACGGGATGGG'
p163
aS'https://www.mousephenotype.org/imits/mi_attempts/15202'
p164
aS'UCD'
p165
asS'7:89923438-89923439'
p166
(lp167
(lp168
S'7:89924299-89924322'
p169
aaS'Hikeshi'
p170
aS'CCGTGGACGTTACCTAACTTTAA'
p171
aS'https://www.mousephenotype.org/imits/mi_attempts/15470'
p172
aS'RIKEN BRC'
p173
asS'8:123123695-123123674'
p174
(lp175
g76
aS'Cpne7'
p176
aS'ATGATTCTATTCATCGGTCTTGG'
p177
aS'https://www.mousephenotype.org/imits/mi_attempts/15201'
p178
aS'UCD'
p179
asS'11:80990882-80990861'
p180
(lp181
(lp182
S'11:73452351-73452374'
p183
aaS'Olfr380'
p184
aS'TCAAATAGAACAAGAGGACAGGG'
p185
aS'https://www.mousephenotype.org/imits/mi_attempts/15191'
p186
aS'UCD'
p187
asS'11:115503340-115503364'
p188
(lp189
g13
aS'Jpt1'
p190
aS'GCAGATGGATAAAGCACTGTGGG'
p191
aS'https://www.mousephenotype.org/imits/mi_attempts/15374'
p192
aS'JAX'
p193
asS'9:24472898-24472877'
p194
(lp195
(lp196
S'9:24474157-24474180'
p197
aS'9:24474069-24474092'
p198
aS'9:24472816-24472839'
p199
aaS'Dpy19l1'
p200
aS'GGTTCTAATGGATTGGACAGAGG'
p201
aS'https://www.mousephenotype.org/imits/mi_attempts/15204'
p202
aS'UCD'
p203
asS'11:80911246-80911269'
p204
(lp205
g30
aS'Olfr376'
p206
aS'TGAAGGTGGCTTAGTGAAGGAGG'
p207
aS'https://www.mousephenotype.org/imits/mi_attempts/15190'
p208
aS'UCD'
p209
asS'11:81343838-81343862'
p210
(lp211
g59
aS'Olfr392'
p212
aS'GAGGAATCAGCAAAGTGTACAGG'
p213
aS'https://www.mousephenotype.org/imits/mi_attempts/15192'
p214
aS'UCD'
p215
asS'18:80130682-80130706'
p216
(lp217
(lp218
S'18:80130615-80130638'
p219
aaS'Adnp2'
p220
aS'CATGCTGTAGTACAGAGTGTTGG'
p221
aS'https://www.mousephenotype.org/imits/mi_attempts/14124'
p222
aS'TCP'
p223
asS'16:93683924-93683948'
p224
(lp225
(lp226
S'16:93683845-93683868'
p227
aaS'Cbr3'
p228
aS'TGAGAAAAGCCTTCGTGCGTGGG'
p229
aS'https://www.mousephenotype.org/imits/mi_attempts/15415'
p230
aS'ICS'
p231
asS'X:102188105-102188129'
p232
(lp233
g45
aS'Rps4x'
p234
aS'GACTCAGGTCTCAAAGTAGCAGG'
p235
aS'https://www.mousephenotype.org/imits/mi_attempts/15194'
p236
aS'UCD'
p237
asS'18:61244990-61245014'
p238
(lp239
g85
aS'Pde6a'
p240
aS'GCATCTTCCCTAAGTCATATAGG'
p241
aS'https://www.mousephenotype.org/imits/mi_attempts/15184'
p242
aS'UCD'
p243
asS'13:125947769-125947792'
p244
(lp245
g149
aS'Nnt'
p246
aS'GAGCATGGCCGAGATTACTCCGG'
p247
aS'https://www.mousephenotype.org/imits/mi_attempts/18839'
p248
aS'Harwell'
p249
asS'8:84676631-84676654'
p250
(lp251
(lp252
S'8:84676348-84676371'
p253
aaS'Nacc1'
p254
aS'CAACAACGGCAGCCGCAAGACGG'
p255
aS'https://www.mousephenotype.org/imits/mi_attempts/16947'
p256
aS'HMGU'
p257
asS'17:85030621-85030645'
p258
(lp259
(lp260
S'17:85032967-85032990'
p261
aaS'Slc3a1'
p262
aS'GGCTCAGCAACCATTCTCAACAGG'
p263
aS'https://www.mousephenotype.org/imits/mi_attempts/18618'
p264
aS'Monterotondo R&D'
p265
asS'10:24716894-24716918'
p266
(lp267
(lp268
S'10:23786517-23786540'
p269
aaS'Rps12'
p270
aS'GGCACCAGCACTAACTTGCATGG'
p271
aS'https://www.mousephenotype.org/imits/mi_attempts/15193'
p272
aS'UCD'
p273
asS'11:80990703-80990685'
p274
(lp275
g182
aS'Olfr380'
p276
aS'GGAAAGCGTGTGGGACCATGTGG'
p277
aS'https://www.mousephenotype.org/imits/mi_attempts/15191'
p278
aS'UCD'
p279
asS'8:117794489-117794512'
p280
(lp281
(lp282
S'8:117794820-117794843'
p283
aaS'Mphosph6'
p284
aS'AGCTTCAGTCTCTCCCCACCGGG'
p285
aS'https://www.mousephenotype.org/imits/mi_attempts/15377'
p286
aS'JAX'
p287
asS'11:80987904-80987883'
p288
(lp289
g182
aS'Olfr380'
p290
aS'CCGTGCTTAGTTGTTAGTGTAGG'
p291
aS'https://www.mousephenotype.org/imits/mi_attempts/15191'
p292
aS'UCD'
p293
asS'1:139237092-139237070'
p294
(lp295
(lp296
S'1:139237110-139237133'
p297
aaS'Crb1'
p298
aS'CCGAGAGACAGGCACACCATAAG'
p299
aS'https://www.mousephenotype.org/imits/mi_attempts/15918'
p300
aS'Harwell'
p301
asS'13:76641964-76641988'
p302
(lp303
(lp304
S'13:76641340-76641363'
p305
aS'13:76641389-76641412'
p306
aaS'Mctp1'
p307
aS'GTGACTTGACTTCTCTGACATGG'
p308
aS'https://www.mousephenotype.org/imits/mi_attempts/15186'
p309
aS'UCD'
p310
asS'10:24716921-24716945'
p311
(lp312
g268
aS'Rps12'
p313
aS'GCTCAACACCATTATCACTAAGG'
p314
aS'https://www.mousephenotype.org/imits/mi_attempts/15193'
p315
aS'UCD'
p316
asS'16:93682795-93682819'
p317
(lp318
g226
aS'Cbr3'
p319
aS'ACCGAGACCTCCAGCCGCGAGGG'
p320
aS'https://www.mousephenotype.org/imits/mi_attempts/15415'
p321
aS'ICS'
p322
asS'13:55786154-55786133'
p323
(lp324
g110
aS'Catsper3'
p325
aS'GAGTGTAGCCTACCCCTACCAGG'
p326
aS'https://www.mousephenotype.org/imits/mi_attempts/15202'
p327
aS'UCD'
p328
asS'7:131228520-131228544'
p329
(lp330
g67
aS'5430419D17Rik'
p331
aS'CTGTGGTCACAGCAGCTCCCAGG'
p332
aS'https://www.mousephenotype.org/imits/mi_attempts/15182'
p333
aS'UCD'
p334
asS'13:77761295-77761318'
p335
(lp336
(lp337
aS'Fam172a'
p338
aS'CACAGTGACAGGCTTACTAGTGG'
p339
aS'https://www.mousephenotype.org/imits/mi_attempts/15906'
p340
aS'MARC'
p341
asS'2:106744584-106744607'
p342
(lp343
(lp344
S'2:106744631-106744654'
p345
aS'2:106744906-106744929'
p346
aS'2:106744984-106745007'
p347
aaS'Mpped2'
p348
aS'CACCCAAACAGTCTAACGCAGGG'
p349
aS'https://www.mousephenotype.org/imits/mi_attempts/15393'
p350
aS'JAX'
p351
asS'8:84676634-84676654'
p352
(lp353
(lp354
S'8:84676348-84676371'
p355
aaS'Nacc1'
p356
aS'CAACAACGGCAGCCGCAAGACGG'
p357
aS'https://www.mousephenotype.org/imits/mi_attempts/16458'
p358
aS'HMGU'
p359
asS'NAN:0-23'
p360
(lp361
(lp362
S'7:16419603-16419626'
p363
aS'7:16420635-16420658'
p364
aaS'Zc3h4'
p365
aS'GTAGATAACTACGATACGGGAGG'
p366
aS'https://www.mousephenotype.org/imits/mi_attempts/16561'
p367
aS'UCD'
p368
asS'6:47271372-47271351'
p369
(lp370
(lp371
S'6:47271350-47271373'
p372
aaS'Cntnap2'
p373
aS'CCAAGTGATCTAGGTGCCAAGGG'
p374
aS'https://www.mousephenotype.org/imits/mi_attempts/15798'
p375
aS'Harwell'
p376
asS'4:136319421-136319444'
p377
(lp378
(lp379
S'4:136319472-136319495'
p380
aaS'Hnrnpr'
p381
aS'GGGATGTGACCACGGGACAGAGG'
p382
aS'https://www.mousephenotype.org/imits/mi_attempts/14433'
p383
aS'MARC'
p384
asS'10:118869684-118869662'
p385
(lp386
g37
aS'Dyrk2'
p387
aS'GAGGGTCACCTCGGAAAGTCAGG'
p388
aS'https://www.mousephenotype.org/imits/mi_attempts/15431'
p389
aS'ICS'
p390
asS'11:81343898-81343878'
p391
(lp392
g59
aS'Olfr392'
p393
aS'GTCCCTTTTCATTGAAATGTAGG'
p394
aS'https://www.mousephenotype.org/imits/mi_attempts/15192'
p395
aS'UCD'
p396
asS'17:24497613-24497592'
p397
(lp398
(lp399
S'17:24494352-24494375'
p400
aS'17:24497622-24497645'
p401
aS'17:24494404-24494427'
p402
aaS'Caskin1'
p403
aS'TAACGGAAACCTGAGCGCTCTGG'
p404
aS'https://www.mousephenotype.org/imits/mi_attempts/15198'
p405
aS'UCD'
p406
asS'16:93682783-93368601'
p407
(lp408
g226
aS'Cbr3'
p409
aS'GTCTCGGTGCGCCCCCACGTGGG'
p410
aS'https://www.mousephenotype.org/imits/mi_attempts/15415'
p411
aS'ICS'
p412
asS'13:125941819-125941842'
p413
(lp414
g149
aS'Nnt'
p415
aS'CCTTGTCAAAAACAGCAGTCTGG'
p416
aS'https://www.mousephenotype.org/imits/mi_attempts/18839'
p417
aS'Harwell'
p418
asS'5:112873222-112873222'
p419
(lp420
(lp421
S'5:112873543-112873566'
p422
aaS'Myo18b'
p423
aS'GGTCAGATCAGGATGATAATGGG'
p424
aS'https://www.mousephenotype.org/imits/mi_attempts/15422'
p425
aS'ICS'
p426
asS'13:76641934-76641958'
p427
(lp428
g304
aS'Mctp1'
p429
aS'GTCTTTGAATCCCAAACTTGTGG'
p430
aS'https://www.mousephenotype.org/imits/mi_attempts/15186'
p431
aS'UCD'
p432
asS'13:104122109-104122088'
p433
(lp434
(lp435
S'13:104120628-104120651'
p436
aS'13:104120657-104120680'
p437
aS'13:104122193-104122216'
p438
aaS'Sgtb'
p439
aS'GCGCAAGCACAACAAGCATTGGG'
p440
aS'https://www.mousephenotype.org/imits/mi_attempts/15196'
p441
aS'UCD'
p442
asS'10:118868043-118868021'
p443
(lp444
g37
aS'Dyrk2'
p445
aS'CGACGCCGCCCTCTGCAACTTGG'
p446
aS'https://www.mousephenotype.org/imits/mi_attempts/15431'
p447
aS'ICS'
p448
asS'5:105609002-105608980'
p449
(lp450
g94
aS'Lrrc8c'
p451
aS'ATAACAGATACGTCAGCTTCCGG'
p452
aS'https://www.mousephenotype.org/imits/mi_attempts/15185'
p453
aS'UCD'
p454
asS'2:3464868-3464891'
p455
(lp456
(lp457
S'2:3464814-3464837'
p458
aaS'Suv39h2'
p459
aS'GCCAGATTCTACAAACACCTTGG'
p460
aS'https://www.mousephenotype.org/imits/mi_attempts/14621'
p461
aS'MARC'
p462
asS'4:47474896-47474875'
p463
(lp464
g4
aS'Sec61b'
p465
aS'AGACAAACAGTGAACATCGCGGG'
p466
aS'https://www.mousephenotype.org/imits/mi_attempts/15195'
p467
aS'UCD'
p468
asS'5:105606331-105606355'
p469
(lp470
g94
aS'Lrrc8c'
p471
aS'CTTATTCTTAGCTCATGTTATGG'
p472
aS'https://www.mousephenotype.org/imits/mi_attempts/15185'
p473
aS'UCD'
p474
asS'6:51580106-51580085'
p475
(lp476
g128
aS'Snx10'
p477
aS'AGGCTGGTAAAGCTAAGAGATGG'
p478
aS'https://www.mousephenotype.org/imits/mi_attempts/15197'
p479
aS'UCD'
p480
asS'8:117794396-117794419'
p481
(lp482
g282
aS'Mphosph6'
p483
aS'AGCGTGGCAGTCTGGTTTTAGGG'
p484
aS'https://www.mousephenotype.org/imits/mi_attempts/15377'
p485
aS'JAX'
p486
asS'17:29099225-29099251'
p487
(lp488
(lp489
S'17:29098066-29098089'
p490
aaS'Cdkn1a'
p491
aS'GGTGTTGTGCCCTGTGGCTGTGG'
p492
aS'https://www.mousephenotype.org/imits/mi_attempts/17478'
p493
aS'Monterotondo R&D'
p494
asS'6:113735699-113735722'
p495
(lp496
(lp497
S'6:113735686-113735709'
p498
aS'6:113734316-113734339'
p499
aS'6:113734357-113734380'
p500
aaS'Sec13'
p501
aS'TCTGCTAAAATTCCGTGAATTGG'
p502
aS'https://www.mousephenotype.org/imits/mi_attempts/17235'
p503
aS'HMGU'
p504
asS'13:125947761-125947784'
p505
(lp506
g149
aS'Nnt'
p507
aS'ATGCTTGGCCGGAGTAATCTCGG'
p508
aS'https://www.mousephenotype.org/imits/mi_attempts/18839'
p509
aS'Harwell'
p510
asS'10:24717524-24717503'
p511
(lp512
g268
aS'Rps12'
p513
aS'TGACAAACCTGTAGCTCGTGGGG'
p514
aS'https://www.mousephenotype.org/imits/mi_attempts/15193'
p515
aS'UCD'
p516
asS'8:117794781-117794804'
p517
(lp518
g282
aS'Mphosph6'
p519
aS'GTAGAGATCTCACTGCGCTCGGG'
p520
aS'https://www.mousephenotype.org/imits/mi_attempts/15377'
p521
aS'JAX'
p522
as.